; Function Attrs: mustprogress uwtable
define hidden noundef zeroext i1 @_ZN18mpz_matrix_manager5solveERK10mpz_matrixP3mpzPKS3_(ptr noundef nonnull align 8 dereferenceable(16) %0, ptr noundef nonnull align 8 captures(address) dereferenceable(16) %1, ptr noundef %2, ptr noundef %3) local_unnamed_addr #4 align 2 {
  %5 = getelementptr inbounds nuw i8, ptr %1, i64 4
  %6 = load i32, ptr %5, align 4, !tbaa !15
  %.not = icmp eq i32 %6, 0
  br i1 %.not, label %._crit_edge, label %.lr.ph

._crit_edge:                                      ; preds = %_ZN11mpz_managerILb0EE3setER3mpzRKS1_.exit, %4
  %7 = tail call noundef zeroext i1 @_ZN18mpz_matrix_manager10solve_coreERK10mpz_matrixP3mpzb(ptr noundef nonnull align 8 dereferenceable(16) %0, ptr noundef nonnull align 8 dereferenceable(16) %1, ptr noundef %2, i1 noundef zeroext true)
  ret i1 %7

.lr.ph:                                           ; preds = %4, %_ZN11mpz_managerILb0EE3setER3mpzRKS1_.exit
  %indvars.iv = phi i64 [ %indvars.iv.next, %_ZN11mpz_managerILb0EE3setER3mpzRKS1_.exit ], [ 0, %4 ]
  %8 = getelementptr inbounds nuw %class.mpz, ptr %2, i64 %indvars.iv
  %9 = getelementptr inbounds nuw %class.mpz, ptr %3, i64 %indvars.iv
  %10 = getelementptr inbounds nuw i8, ptr %9, i64 4
  %11 = load i8, ptr %10, align 4
  %12 = and i8 %11, 1
  %13 = icmp eq i8 %12, 0
  br i1 %13, label %14, label %19

14:                                               ; preds = %.lr.ph
  %15 = load i32, ptr %9, align 8, !tbaa !23
  store i32 %15, ptr %8, align 8, !tbaa !23
  %16 = getelementptr inbounds nuw i8, ptr %8, i64 4
  %17 = load i8, ptr %16, align 4
  %18 = and i8 %17, -2
  store i8 %18, ptr %16, align 4
  br label %_ZN11mpz_managerILb0EE3setER3mpzRKS1_.exit

19:                                               ; preds = %.lr.ph
  %20 = load ptr, ptr %0, align 8, !tbaa !21
  tail call void @_ZN11mpz_managerILb0EE7big_setER3mpzRKS1_(ptr noundef nonnull align 8 dereferenceable(600) %20, ptr noundef nonnull align 8 dereferenceable(16) %8, ptr noundef nonnull align 8 dereferenceable(16) %9)
  br label %_ZN11mpz_managerILb0EE3setER3mpzRKS1_.exit

_ZN11mpz_managerILb0EE3setER3mpzRKS1_.exit:       ; preds = %14, %19
  %indvars.iv.next = add nuw nsw i64 %indvars.iv, 1
  %21 = load i32, ptr %5, align 4, !tbaa !15
  %22 = zext i32 %21 to i64
  %23 = icmp samesign ult i64 %indvars.iv.next, %22
  br i1 %23, label %.lr.ph, label %._crit_edge, !llvm.loop !51
}